	.file	"test_return_struct.c"
	.text
.Ltext0:
	.file 0 "/mnt/ubuntu/home/hervey/csapp3e/self_test/C12" "test_return_struct.c"
	.globl	test1
	.type	test1, @function
test1:
.LFB0:
	.file 1 "test_return_struct.c"
	.loc 1 10 1
	.cfi_startproc
	pushq	%rbp
	.cfi_def_cfa_offset 16
	.cfi_offset 6, -16
	movq	%rsp, %rbp
	.cfi_def_cfa_register 6
	.loc 1 11 19
	movl	$1, -24(%rbp)
	movl	$2, -20(%rbp)
	movl	$3, -16(%rbp)
	.loc 1 12 10
	movq	-24(%rbp), %rax
	movq	%rax, -12(%rbp)
	movl	-16(%rbp), %eax
	movl	%eax, -4(%rbp)
	movq	-12(%rbp), %rax
	movl	-4(%rbp), %ecx
	movq	%rcx, %rdx
	.loc 1 13 1
	popq	%rbp
	.cfi_def_cfa 7, 8
	ret
	.cfi_endproc
.LFE0:
	.size	test1, .-test1
	.globl	test2
	.type	test2, @function
test2:
.LFB1:
	.loc 1 17 1
	.cfi_startproc
	pushq	%rbp
	.cfi_def_cfa_offset 16
	.cfi_offset 6, -16
	movq	%rsp, %rbp
	.cfi_def_cfa_register 6
	.loc 1 18 10
	movl	$0, %eax
	.loc 1 19 1
	popq	%rbp
	.cfi_def_cfa 7, 8
	ret
	.cfi_endproc
.LFE1:
	.size	test2, .-test2
	.globl	test3
	.type	test3, @function
test3:
.LFB2:
	.loc 1 23 1
	.cfi_startproc
	pushq	%rbp
	.cfi_def_cfa_offset 16
	.cfi_offset 6, -16
	movq	%rsp, %rbp
	.cfi_def_cfa_register 6
	.loc 1 24 15
	fldt	.LC0(%rip)
	.loc 1 25 15
	fldt	.LC1(%rip)
	.loc 1 26 10
	fldz
	.loc 1 27 1
	popq	%rbp
	.cfi_def_cfa 7, 8
	ret
	.cfi_endproc
.LFE2:
	.size	test3, .-test3
	.globl	main
	.type	main, @function
main:
.LFB3:
	.loc 1 29 11
	.cfi_startproc
	pushq	%rbp
	.cfi_def_cfa_offset 16
	.cfi_offset 6, -16
	movq	%rsp, %rbp
	.cfi_def_cfa_register 6
	subq	$48, %rsp
	.loc 1 30 16
	call	test3
	fstpt	-16(%rbp)
	.loc 1 31 14
	call	test2
	movq	%rax, -40(%rbp)
	.loc 1 32 20
	call	test1
	movq	%rax, -28(%rbp)
	movl	-20(%rbp), %eax
	andl	$0, %eax
	orl	%edx, %eax
	movl	%eax, -20(%rbp)
	movl	$0, %eax
	.loc 1 33 1
	leave
	.cfi_def_cfa 7, 8
	ret
	.cfi_endproc
.LFE3:
	.size	main, .-main
	.section	.rodata
	.align 16
.LC0:
	.long	1546188227
	.long	-923417969
	.long	16384
	.long	0
	.align 16
.LC1:
	.long	-1374389535
	.long	-998579897
	.long	16385
	.long	0
	.text
.Letext0:
	.section	.note.GNU-stack,"",@progbits
